target datalayout = "e-m:e-p270:32:32-p271:32:32-p272:64:64-i64:64-i128:128-f80:128-n8:16:32:64-S128"
target triple = "x86_64-unknown-linux-gnu"

%"class.v8::IndirectHandleBase" = type { ptr }
%"class.node::BaseObject" = type { %"class.node::MemoryRetainer", %"class.v8::Global", ptr, ptr }
%"class.node::MemoryRetainer" = type { ptr }
%"class.v8::Global" = type { %"class.v8::PersistentBase" }
%"class.v8::PersistentBase" = type { %"class.v8::IndirectHandleBase" }
%"class.std::__cxx11::basic_string" = type { %"struct.std::__cxx11::basic_string<char>::_Alloc_hider", i64, %union.anon.153 }
%"struct.std::__cxx11::basic_string<char>::_Alloc_hider" = type { ptr }
%union.anon.153 = type { i64, [8 x i8] }
%"class.node::v8_utils::GCProfiler" = type { %"class.node::BaseObject", i64, i8, i32, %"class.std::__cxx11::basic_ostringstream", %"class.node::JSONWriter" }
%"class.std::__cxx11::basic_ostringstream" = type { %"class.std::basic_ostream.base", %"class.std::__cxx11::basic_stringbuf", %"class.std::basic_ios" }
%"class.std::basic_ostream.base" = type { ptr }
%"class.std::__cxx11::basic_stringbuf" = type { %"class.std::basic_streambuf", i32, %"class.std::__cxx11::basic_string" }
%"class.std::basic_streambuf" = type { ptr, ptr, ptr, ptr, ptr, ptr, ptr, %"class.std::locale" }
%"class.std::locale" = type { ptr }
%"class.std::basic_ios" = type { %"class.std::ios_base", ptr, i8, i8, ptr, ptr, ptr, ptr }
%"class.std::ios_base" = type { ptr, i64, i64, i32, i32, i32, ptr, %"struct.std::ios_base::_Words", [8 x %"struct.std::ios_base::_Words"], i32, ptr, %"class.std::locale" }
%"struct.std::ios_base::_Words" = type { ptr, i64 }
%"class.node::JSONWriter" = type <{ ptr, i8, [3 x i8], i32, i32, [4 x i8] }>

@.str.70 = private unnamed_addr constant [7 x i8] c"gcType\00", align 1
@.str.71 = private unnamed_addr constant [9 x i8] c"beforeGC\00", align 1
@.str.72 = private unnamed_addr constant [9 x i8] c"Scavenge\00", align 1
@.str.73 = private unnamed_addr constant [17 x i8] c"MarkSweepCompact\00", align 1
@.str.74 = private unnamed_addr constant [19 x i8] c"IncrementalMarking\00", align 1
@.str.75 = private unnamed_addr constant [21 x i8] c"ProcessWeakCallbacks\00", align 1
@.str.76 = private unnamed_addr constant [8 x i8] c"Unknown\00", align 1

; Function Attrs: mustprogress nounwind uwtable
define internal noundef ptr @_ZN4node8v8_utilsL13GetGCTypeNameEN2v86GCTypeE(i32 noundef %gc_type) #4 {
entry:
  %retval = alloca ptr, align 8
  %gc_type.addr = alloca i32, align 4
  store i32 %gc_type, ptr %gc_type.addr, align 4
  %0 = load i32, ptr %gc_type.addr, align 4
  switch i32 %0, label %sw.default [
    i32 1, label %sw.bb
    i32 4, label %sw.bb1
    i32 8, label %sw.bb2
    i32 16, label %sw.bb3
  ]

sw.bb:                                            ; preds = %entry
  store ptr @.str.72, ptr %retval, align 8
  br label %return

sw.bb1:                                           ; preds = %entry
  store ptr @.str.73, ptr %retval, align 8
  br label %return

sw.bb2:                                           ; preds = %entry
  store ptr @.str.74, ptr %retval, align 8
  br label %return

sw.bb3:                                           ; preds = %entry
  store ptr @.str.75, ptr %retval, align 8
  br label %return

sw.default:                                       ; preds = %entry
  store ptr @.str.76, ptr %retval, align 8
  br label %return

return:                                           ; preds = %sw.default, %sw.bb3, %sw.bb2, %sw.bb1, %sw.bb
  %1 = load ptr, ptr %retval, align 8
  ret ptr %1
}

; Function Attrs: mustprogress nounwind uwtable
define dso_local noundef ptr @_ZN4node8v8_utils10GCProfiler6writerEv(ptr noundef nonnull align 8 dereferenceable(448) %this) #4 align 2 {
entry:
  %this.addr = alloca ptr, align 8
  store ptr %this, ptr %this.addr, align 8
  %this1 = load ptr, ptr %this.addr, align 8
  %writer_ = getelementptr inbounds %"class.node::v8_utils::GCProfiler", ptr %this1, i32 0, i32 5
  ret ptr %writer_
}

; Function Attrs: mustprogress nounwind uwtable
define internal void @_ZN4node8v8_utilsL16BeforeGCCallbackEPN2v87IsolateENS1_6GCTypeENS1_15GCCallbackFlagsEPv(ptr noundef %isolate, i32 noundef %gc_type, i32 noundef %flags, ptr noundef %data) #4 {
entry:
  %isolate.addr = alloca ptr, align 8
  %gc_type.addr = alloca i32, align 4
  %flags.addr = alloca i32, align 4
  %data.addr = alloca ptr, align 8
  %profiler = alloca ptr, align 8
  %writer = alloca ptr, align 8
  %ref.tmp = alloca ptr, align 8
  store ptr %isolate, ptr %isolate.addr, align 8
  store i32 %gc_type, ptr %gc_type.addr, align 4
  store i32 %flags, ptr %flags.addr, align 4
  store ptr %data, ptr %data.addr, align 8
  %0 = load ptr, ptr %data.addr, align 8
  store ptr %0, ptr %profiler, align 8
  %1 = load ptr, ptr %profiler, align 8
  %current_gc_type = getelementptr inbounds %"class.node::v8_utils::GCProfiler", ptr %1, i32 0, i32 2
  %2 = load i8, ptr %current_gc_type, align 8
  %conv = zext i8 %2 to i32
  %cmp = icmp ne i32 %conv, 0
  br i1 %cmp, label %if.then, label %if.end

if.then:                                          ; preds = %entry
  br label %return

if.end:                                           ; preds = %entry
  %3 = load ptr, ptr %profiler, align 8
  %call = call noundef ptr @_ZN4node8v8_utils10GCProfiler6writerEv(ptr noundef nonnull align 8 dereferenceable(448) %3)
  store ptr %call, ptr %writer, align 8
  %4 = load ptr, ptr %writer, align 8
  call void @_ZN4node10JSONWriter10json_startEv(ptr noundef nonnull align 8 dereferenceable(20) %4)
  %5 = load ptr, ptr %writer, align 8
  %6 = load i32, ptr %gc_type.addr, align 4
  %call1 = call noundef ptr @_ZN4node8v8_utilsL13GetGCTypeNameEN2v86GCTypeE(i32 noundef %6)
  store ptr %call1, ptr %ref.tmp, align 8
  call void @_ZN4node10JSONWriter13json_keyvalueIA7_cPKcEEvRKT_RKT0_(ptr noundef nonnull align 8 dereferenceable(20) %5, ptr noundef nonnull align 1 dereferenceable(7) @.str.70, ptr noundef nonnull align 8 dereferenceable(8) %ref.tmp)
  %7 = load ptr, ptr %writer, align 8
  call void @_ZN4node10JSONWriter16json_objectstartIPKcEEvT_(ptr noundef nonnull align 8 dereferenceable(20) %7, ptr noundef @.str.71)
  %8 = load ptr, ptr %writer, align 8
  %9 = load ptr, ptr %isolate.addr, align 8
  call void @_ZN4node8v8_utilsL17SetHeapStatisticsEPNS_10JSONWriterEPN2v87IsolateE(ptr noundef %8, ptr noundef %9)
  %10 = load ptr, ptr %writer, align 8
  call void @_ZN4node10JSONWriter14json_objectendEv(ptr noundef nonnull align 8 dereferenceable(20) %10)
  %11 = load i32, ptr %gc_type.addr, align 4
  %conv2 = trunc i32 %11 to i8
  %12 = load ptr, ptr %profiler, align 8
  %current_gc_type3 = getelementptr inbounds %"class.node::v8_utils::GCProfiler", ptr %12, i32 0, i32 2
  store i8 %conv2, ptr %current_gc_type3, align 8
  %call4 = call i64 @uv_hrtime()
  %13 = load ptr, ptr %profiler, align 8
  %start_time = getelementptr inbounds %"class.node::v8_utils::GCProfiler", ptr %13, i32 0, i32 1
  store i64 %call4, ptr %start_time, align 8
  br label %return

return:                                           ; preds = %if.end, %if.then
  ret void
}