; Function Attrs: mustprogress nounwind uwtable
define internal void @_ZN4node8v8_utilsL16BeforeGCCallbackEPN2v87IsolateENS1_6GCTypeENS1_15GCCallbackFlagsEPv(ptr noundef %isolate, i32 noundef %gc_type, i32 %flags, ptr noundef %data) #3 {
entry:
  %ref.tmp = alloca ptr, align 8
  %current_gc_type = getelementptr inbounds i8, ptr %data, i64 40
  %0 = load i8, ptr %current_gc_type, align 8
  %cmp.not = icmp eq i8 %0, 0
  br i1 %cmp.not, label %if.end, label %return

if.end:                                           ; preds = %entry
  %writer_.i = getelementptr inbounds i8, ptr %data, i64 424
  tail call void @_ZN4node10JSONWriter10json_startEv(ptr noundef nonnull align 8 dereferenceable(20) %writer_.i)
  switch i32 %gc_type, label %sw.default.i [
    i32 1, label %_ZN4node8v8_utilsL13GetGCTypeNameEN2v86GCTypeE.exit
    i32 4, label %sw.bb1.i
    i32 8, label %sw.bb2.i
    i32 16, label %sw.bb3.i
  ]

sw.bb1.i:                                         ; preds = %if.end
  br label %_ZN4node8v8_utilsL13GetGCTypeNameEN2v86GCTypeE.exit

sw.bb2.i:                                         ; preds = %if.end
  br label %_ZN4node8v8_utilsL13GetGCTypeNameEN2v86GCTypeE.exit

sw.bb3.i:                                         ; preds = %if.end
  br label %_ZN4node8v8_utilsL13GetGCTypeNameEN2v86GCTypeE.exit

sw.default.i:                                     ; preds = %if.end
  br label %_ZN4node8v8_utilsL13GetGCTypeNameEN2v86GCTypeE.exit

_ZN4node8v8_utilsL13GetGCTypeNameEN2v86GCTypeE.exit: ; preds = %if.end, %sw.bb1.i, %sw.bb2.i, %sw.bb3.i, %sw.default.i
  %retval.0.i = phi ptr [ @.str.76, %sw.default.i ], [ @.str.75, %sw.bb3.i ], [ @.str.74, %sw.bb2.i ], [ @.str.73, %sw.bb1.i ], [ @.str.72, %if.end ]
  store ptr %retval.0.i, ptr %ref.tmp, align 8
  call void @_ZN4node10JSONWriter13json_keyvalueIA7_cPKcEEvRKT_RKT0_(ptr noundef nonnull align 8 dereferenceable(20) %writer_.i, ptr noundef nonnull align 1 dereferenceable(7) @.str.70, ptr noundef nonnull align 8 dereferenceable(8) %ref.tmp)
  call void @_ZN4node10JSONWriter16json_objectstartIPKcEEvT_(ptr noundef nonnull align 8 dereferenceable(20) %writer_.i, ptr noundef nonnull @.str.71)
  call fastcc void @_ZN4node8v8_utilsL17SetHeapStatisticsEPNS_10JSONWriterEPN2v87IsolateE(ptr noundef nonnull %writer_.i, ptr noundef %isolate)
  call void @_ZN4node10JSONWriter14json_objectendEv(ptr noundef nonnull align 8 dereferenceable(20) %writer_.i)
  %conv2 = trunc i32 %gc_type to i8
  store i8 %conv2, ptr %current_gc_type, align 8
  %call4 = call i64 @uv_hrtime() #20
  %start_time = getelementptr inbounds i8, ptr %data, i64 32
  store i64 %call4, ptr %start_time, align 8
  br label %return

return:                                           ; preds = %entry, %_ZN4node8v8_utilsL13GetGCTypeNameEN2v86GCTypeE.exit
  ret void
}